Certificate:
    Data:
        Version: 3 (0x2)
        Serial Number: 6 (0x6)
    Signature Algorithm: sha256WithRSAEncryption
        Issuer: CN=beven_proj2
        Validity
            Not Before: Jun 22 17:48:24 2016 GMT
            Not After : Jun 20 17:48:24 2026 GMT
        Subject: CN=proj2_vpn
        Subject Public Key Info:
            Public Key Algorithm: rsaEncryption
                Public-Key: (2048 bit)
                Modulus:
                    00:c2:1c:16:6e:b8:a6:56:b5:e1:29:d1:51:b6:c6:
                    41:62:44:6b:1a:ab:15:4e:71:bc:92:d3:37:8c:a5:
                    50:16:c6:20:6b:9b:b8:66:05:fe:25:1e:9a:68:cc:
                    65:d5:05:46:61:17:cc:25:61:2b:04:c8:68:7d:67:
                    53:53:c7:08:b4:b2:c4:f2:36:fa:db:9d:99:84:ea:
                    05:3c:fb:b0:b0:3f:eb:f4:c5:64:cc:34:68:7f:4c:
                    ca:98:e2:fe:cd:f0:7a:2e:ba:05:81:53:8c:a5:4d:
                    a4:cb:54:d3:f9:be:f5:a2:73:f7:2d:b5:02:79:df:
                    3b:6e:aa:6d:9e:ea:35:a8:4e:38:8f:1b:0a:5e:6a:
                    25:fd:a8:8e:ba:eb:d6:2c:ae:45:58:e4:ff:f3:a3:
                    5c:c5:05:49:e6:69:58:dd:46:44:05:3a:ce:a2:57:
                    c3:5e:49:36:3c:b0:05:c5:61:29:8e:69:c0:8c:ab:
                    24:6f:e2:0d:c8:b2:3b:bc:84:b6:6a:f6:7e:7d:6c:
                    6e:f4:65:5d:84:db:47:8f:b4:3c:b7:5e:c1:d8:cc:
                    06:72:83:9b:37:84:da:3a:fa:e5:a1:e2:06:3a:fd:
                    90:23:b3:8d:18:d9:b4:02:a1:01:f0:fd:f3:c1:c4:
                    0a:7a:59:47:1a:31:2d:c9:38:9c:b8:b6:72:b4:e1:
                    25:33
                Exponent: 65537 (0x10001)
        X509v3 extensions:
            X509v3 Basic Constraints: 
                CA:FALSE
            X509v3 Subject Key Identifier: 
                F3:2E:E1:84:E3:30:28:ED:D6:4D:57:79:9C:DD:58:CD:47:68:87:33
            X509v3 Authority Key Identifier: 
                keyid:45:D0:84:03:CE:90:89:DE:84:73:3B:44:94:D2:11:35:FF:21:CD:20
                DirName:/CN=beven_proj2
                serial:9A:13:EE:8C:38:C7:A7:F7

            X509v3 Extended Key Usage: 
                TLS Web Server Authentication
            X509v3 Key Usage: 
                Digital Signature, Key Encipherment
    Signature Algorithm: sha256WithRSAEncryption
         1e:e8:a6:4b:2c:19:a1:5c:d5:14:9f:7c:5a:cf:c2:52:9f:55:
         65:9b:82:f8:d0:62:13:cc:40:14:fd:b9:d2:ef:f3:d8:77:a9:
         67:22:2b:cc:c8:bf:10:ba:27:6a:00:1a:8d:d0:f1:6d:22:b6:
         9f:24:c5:68:54:ab:9e:04:fc:c6:d9:bf:ad:f8:4e:c8:20:c7:
         01:19:8b:08:f7:da:30:c7:84:27:dc:aa:b1:82:ec:68:e8:a9:
         47:ba:bb:25:d1:4f:ef:fa:98:1f:8e:1f:35:1e:1d:4a:f2:67:
         29:35:cc:89:48:e0:a4:0f:6e:0f:e0:07:aa:4f:e9:ce:04:bb:
         ed:63:bd:2b:83:14:80:f4:2d:2d:5c:86:92:3b:93:3d:b1:d6:
         47:d7:62:40:e9:39:c4:17:23:aa:6d:8d:1c:fa:29:85:c2:5b:
         99:45:c6:9f:8b:c7:8d:83:cb:f5:4b:71:14:a3:2d:4d:68:b9:
         9d:df:bf:ad:96:a7:67:14:dd:96:f1:a1:0a:b6:75:22:81:91:
         90:4f:12:f7:a7:c7:40:ed:20:41:79:84:f3:1a:2f:ca:af:76:
         49:18:05:cd:37:b0:c6:c3:f9:74:e8:f5:df:78:45:90:a1:ae:
         b5:fc:5e:de:54:8d:ea:87:53:cb:41:2d:c5:4d:bc:75:51:4e:
         cb:ad:91:a9
-----BEGIN CERTIFICATE-----
MIIDPTCCAiWgAwIBAgIBBjANBgkqhkiG9w0BAQsFADAWMRQwEgYDVQQDFAtiZXZl
bl9wcm9qMjAeFw0xNjA2MjIxNzQ4MjRaFw0yNjA2MjAxNzQ4MjRaMBQxEjAQBgNV
BAMUCXByb2oyX3ZwbjCCASIwDQYJKoZIhvcNAQEBBQADggEPADCCAQoCggEBAMIc
Fm64pla14SnRUbbGQWJEaxqrFU5xvJLTN4ylUBbGIGubuGYF/iUemmjMZdUFRmEX
zCVhKwTIaH1nU1PHCLSyxPI2+tudmYTqBTz7sLA/6/TFZMw0aH9Mypji/s3wei66
BYFTjKVNpMtU0/m+9aJz9y21AnnfO26qbZ7qNahOOI8bCl5qJf2ojrrr1iyuRVjk
//OjXMUFSeZpWN1GRAU6zqJXw15JNjywBcVhKY5pwIyrJG/iDciyO7yEtmr2fn1s
bvRlXYTbR4+0PLdewdjMBnKDmzeE2jr65aHiBjr9kCOzjRjZtAKhAfD988HECnpZ
RxoxLck4nLi2crThJTMCAwEAAaOBlzCBlDAJBgNVHRMEAjAAMB0GA1UdDgQWBBTz
LuGE4zAo7dZNV3mc3VjNR2iHMzBGBgNVHSMEPzA9gBRF0IQDzpCJ3oRzO0SU0hE1
/yHNIKEapBgwFjEUMBIGA1UEAxQLYmV2ZW5fcHJvajKCCQCaE+6MOMen9zATBgNV
HSUEDDAKBggrBgEFBQcDATALBgNVHQ8EBAMCBaAwDQYJKoZIhvcNAQELBQADggEB
AB7opkssGaFc1RSffFrPwlKfVWWbgvjQYhPMQBT9udLv89h3qWciK8zIvxC6J2oA
Go3Q8W0itp8kxWhUq54E/MbZv634TsggxwEZiwj32jDHhCfcqrGC7GjoqUe6uyXR
T+/6mB+OHzUeHUryZyk1zIlI4KQPbg/gB6pP6c4Eu+1jvSuDFID0LS1chpI7kz2x
1kfXYkDpOcQXI6ptjRz6KYXCW5lFxp+Lx42Dy/VLcRSjLU1ouZ3fv62Wp2cU3Zbx
oQq2dSKBkZBPEvenx0DtIEF5hPMaL8qvdkkYBc03sMbD+XTo9d94RZChrrX8Xt5U
jeqHU8tBLcVNvHVRTsutkak=
-----END CERTIFICATE-----
